target datalayout = "e-m:e-p270:32:32-p271:32:32-p272:64:64-i64:64-i128:128-f80:128-n8:16:32:64-S128"
target triple = "x86_64-pc-linux-gnu"

%struct.PJCoordOperation = type <{ i32, [4 x i8], double, double, double, double, double, double, double, double, ptr, %"class.std::__cxx11::basic_string", double, double, %"class.std::__cxx11::basic_string", i8, i8, i8, i8, i8, i8, i8, i8, ptr, ptr, i32, [4 x i8] }>
%"class.std::__cxx11::basic_string" = type { %"struct.std::__cxx11::basic_string<char>::_Alloc_hider", i64, %union.anon }
%"struct.std::__cxx11::basic_string<char>::_Alloc_hider" = type { ptr }
%union.anon = type { i64, [8 x i8] }
%struct.PJconsts = type { ptr, ptr, ptr, ptr, ptr, ptr, ptr, ptr, ptr, ptr, ptr, ptr, i32, ptr, ptr, ptr, ptr, ptr, ptr, ptr, ptr, double, double, double, double, double, double, double, double, double, double, double, double, double, double, double, double, double, double, double, double, double, double, i32, i32, i32, i32, i32, i32, i32, i32, i32, i32, i32, ptr, ptr, ptr, ptr, ptr, ptr, double, double, double, double, double, double, double, double, double, double, double, i32, [7 x double], i32, ptr, ptr, double, double, i32, [4 x i8], %"class.std::shared_ptr", i8, double, i8, %"class.std::__cxx11::basic_string", %"class.std::__cxx11::basic_string", %"class.std::__cxx11::basic_string", i8, %"class.std::vector", i32, %"class.std::vector.3", i32, i8, i8, i8, ptr }
%"class.std::shared_ptr" = type { %"class.std::__shared_ptr" }
%"class.std::__shared_ptr" = type { ptr, %"class.std::__shared_count" }
%"class.std::__shared_count" = type { ptr }
%"class.std::vector" = type { %"struct.std::_Vector_base" }
%"struct.std::_Vector_base" = type { %"struct.std::_Vector_base<osgeo::proj::operation::GridDescription, std::allocator<osgeo::proj::operation::GridDescription>>::_Vector_impl" }
%"struct.std::_Vector_base<osgeo::proj::operation::GridDescription, std::allocator<osgeo::proj::operation::GridDescription>>::_Vector_impl" = type { %"struct.std::_Vector_base<osgeo::proj::operation::GridDescription, std::allocator<osgeo::proj::operation::GridDescription>>::_Vector_impl_data" }
%"struct.std::_Vector_base<osgeo::proj::operation::GridDescription, std::allocator<osgeo::proj::operation::GridDescription>>::_Vector_impl_data" = type { ptr, ptr, ptr }
%"class.std::vector.3" = type { %"struct.std::_Vector_base.4" }
%"struct.std::_Vector_base.4" = type { %"struct.std::_Vector_base<PJCoordOperation, std::allocator<PJCoordOperation>>::_Vector_impl" }
%"struct.std::_Vector_base<PJCoordOperation, std::allocator<PJCoordOperation>>::_Vector_impl" = type { %"struct.std::_Vector_base<PJCoordOperation, std::allocator<PJCoordOperation>>::_Vector_impl_data" }
%"struct.std::_Vector_base<PJCoordOperation, std::allocator<PJCoordOperation>>::_Vector_impl_data" = type { ptr, ptr, ptr }

; Function Attrs: mustprogress uwtable
define hidden noundef zeroext i1 @_ZNK16PJCoordOperation14isInstantiableEv(ptr noundef nonnull align 8 dereferenceable(188) %0) #3 align 2 {
  %2 = alloca ptr, align 8
  store ptr %0, ptr %2, align 8, !tbaa !3
  %3 = load ptr, ptr %2, align 8
  %4 = getelementptr inbounds nuw %struct.PJCoordOperation, ptr %3, i32 0, i32 25
  %5 = load i32, ptr %4, align 8, !tbaa !22
  %6 = icmp eq i32 %5, -1
  br i1 %6, label %7, label %16

7:                                                ; preds = %1
  %8 = getelementptr inbounds nuw %struct.PJCoordOperation, ptr %3, i32 0, i32 10
  %9 = load ptr, ptr %8, align 8, !tbaa !8
  %10 = getelementptr inbounds nuw %struct.PJconsts, ptr %9, i32 0, i32 0
  %11 = load ptr, ptr %10, align 8, !tbaa !23
  %12 = getelementptr inbounds nuw %struct.PJCoordOperation, ptr %3, i32 0, i32 10
  %13 = load ptr, ptr %12, align 8, !tbaa !8
  %14 = call i32 @proj_coordoperation_is_instantiable(ptr noundef %11, ptr noundef %13)
  %15 = getelementptr inbounds nuw %struct.PJCoordOperation, ptr %3, i32 0, i32 25
  store i32 %14, ptr %15, align 8, !tbaa !22
  br label %16

16:                                               ; preds = %7, %1
  %17 = getelementptr inbounds nuw %struct.PJCoordOperation, ptr %3, i32 0, i32 25
  %18 = load i32, ptr %17, align 8, !tbaa !22
  %19 = icmp eq i32 %18, 1
  ret i1 %19
}